; Function Attrs: mustprogress nofree norecurse nosync nounwind willreturn memory(read, inaccessiblemem: none) uwtable
define hidden noundef zeroext i1 @_ZN9hb_font_t12has_func_setEj(ptr nocapture noundef nonnull readonly align 8 dereferenceable(192) %0, i32 noundef %1) local_unnamed_addr #9 align 2 {
  %3 = getelementptr inbounds i8, ptr %0, i64 144
  %4 = load ptr, ptr %3, align 8
  %5 = getelementptr inbounds i8, ptr %4, i64 32
  %6 = zext i32 %1 to i64
  %7 = getelementptr inbounds [19 x ptr], ptr %5, i64 0, i64 %6
  %8 = load ptr, ptr %7, align 8
  %9 = getelementptr inbounds [19 x ptr], ptr getelementptr inbounds (i8, ptr @_ZL22_hb_font_funcs_default, i64 32), i64 0, i64 %6
  %10 = load ptr, ptr %9, align 8
  %11 = icmp ne ptr %8, %10
  ret i1 %11
}